; Function Attrs: nounwind uwtable
define internal noundef i32 @luaB_getfenv(ptr noundef %0) #0 {
  tail call fastcc void @getfunc(ptr noundef %0, i32 noundef 1)
  %2 = tail call i32 @lua_iscfunction(ptr noundef %0, i32 noundef -1) #8
  %.not = icmp eq i32 %2, 0
  br i1 %.not, label %4, label %3

3:                                                ; preds = %1
  tail call void @lua_pushvalue(ptr noundef %0, i32 noundef -10002) #8
  br label %5

4:                                                ; preds = %1
  tail call void @lua_getfenv(ptr noundef %0, i32 noundef -1) #8
  br label %5

5:                                                ; preds = %4, %3
  ret i32 1
}